target datalayout = "e-m:e-p270:32:32-p271:32:32-p272:64:64-i64:64-i128:128-f80:128-n8:16:32:64-S128"
target triple = "x86_64-pc-linux-gnu"

%struct.anon = type { i32, [0 x i8] }
%struct.varattrib_1b = type { i8, [0 x i8] }
%struct.varattrib_1b_e = type { i8, i8, [0 x i8] }
%struct.FunctionCallInfoBaseData = type { ptr, ptr, ptr, i32, i8, i16, [0 x %struct.NullableDatum] }
%struct.NullableDatum = type { i64, i8 }

@.str.2 = private unnamed_addr constant [10 x i8] c"varlena.c\00", align 1
@.str.28 = private unnamed_addr constant [72 x i8] c"Unicode categorization can only be performed if server encoding is UTF8\00", align 1
@__func__.unicode_assigned = private unnamed_addr constant [17 x i8] c"unicode_assigned\00", align 1

; Function Attrs: inlinehint nounwind uwtable
define internal i64 @BoolGetDatum(i1 noundef zeroext %0) #0 {
  %2 = alloca i8, align 1
  %3 = zext i1 %0 to i8
  store i8 %3, ptr %2, align 1
  %4 = load i8, ptr %2, align 1, !range !9, !noundef !10
  %5 = trunc i8 %4 to i1
  %6 = select i1 %5, i32 1, i32 0
  %7 = sext i32 %6 to i64
  ret i64 %7
}

; Function Attrs: inlinehint nounwind uwtable
define internal i32 @utf8_to_unicode(ptr noundef %0) #0 {
  %2 = alloca i32, align 4
  %3 = alloca ptr, align 8
  store ptr %0, ptr %3, align 8
  %4 = load ptr, ptr %3, align 8
  %5 = load i8, ptr %4, align 1
  %6 = zext i8 %5 to i32
  %7 = and i32 %6, 128
  %8 = icmp eq i32 %7, 0
  br i1 %8, label %9, label %14

9:                                                ; preds = %1
  %10 = load ptr, ptr %3, align 8
  %11 = getelementptr inbounds i8, ptr %10, i64 0
  %12 = load i8, ptr %11, align 1
  %13 = zext i8 %12 to i32
  store i32 %13, ptr %2, align 4
  br label %93

14:                                               ; preds = %1
  %15 = load ptr, ptr %3, align 8
  %16 = load i8, ptr %15, align 1
  %17 = zext i8 %16 to i32
  %18 = and i32 %17, 224
  %19 = icmp eq i32 %18, 192
  br i1 %19, label %20, label %33

20:                                               ; preds = %14
  %21 = load ptr, ptr %3, align 8
  %22 = getelementptr inbounds i8, ptr %21, i64 0
  %23 = load i8, ptr %22, align 1
  %24 = zext i8 %23 to i32
  %25 = and i32 %24, 31
  %26 = shl i32 %25, 6
  %27 = load ptr, ptr %3, align 8
  %28 = getelementptr inbounds i8, ptr %27, i64 1
  %29 = load i8, ptr %28, align 1
  %30 = zext i8 %29 to i32
  %31 = and i32 %30, 63
  %32 = or i32 %26, %31
  store i32 %32, ptr %2, align 4
  br label %93

33:                                               ; preds = %14
  %34 = load ptr, ptr %3, align 8
  %35 = load i8, ptr %34, align 1
  %36 = zext i8 %35 to i32
  %37 = and i32 %36, 240
  %38 = icmp eq i32 %37, 224
  br i1 %38, label %39, label %59

39:                                               ; preds = %33
  %40 = load ptr, ptr %3, align 8
  %41 = getelementptr inbounds i8, ptr %40, i64 0
  %42 = load i8, ptr %41, align 1
  %43 = zext i8 %42 to i32
  %44 = and i32 %43, 15
  %45 = shl i32 %44, 12
  %46 = load ptr, ptr %3, align 8
  %47 = getelementptr inbounds i8, ptr %46, i64 1
  %48 = load i8, ptr %47, align 1
  %49 = zext i8 %48 to i32
  %50 = and i32 %49, 63
  %51 = shl i32 %50, 6
  %52 = or i32 %45, %51
  %53 = load ptr, ptr %3, align 8
  %54 = getelementptr inbounds i8, ptr %53, i64 2
  %55 = load i8, ptr %54, align 1
  %56 = zext i8 %55 to i32
  %57 = and i32 %56, 63
  %58 = or i32 %52, %57
  store i32 %58, ptr %2, align 4
  br label %93

59:                                               ; preds = %33
  %60 = load ptr, ptr %3, align 8
  %61 = load i8, ptr %60, align 1
  %62 = zext i8 %61 to i32
  %63 = and i32 %62, 248
  %64 = icmp eq i32 %63, 240
  br i1 %64, label %65, label %92

65:                                               ; preds = %59
  %66 = load ptr, ptr %3, align 8
  %67 = getelementptr inbounds i8, ptr %66, i64 0
  %68 = load i8, ptr %67, align 1
  %69 = zext i8 %68 to i32
  %70 = and i32 %69, 7
  %71 = shl i32 %70, 18
  %72 = load ptr, ptr %3, align 8
  %73 = getelementptr inbounds i8, ptr %72, i64 1
  %74 = load i8, ptr %73, align 1
  %75 = zext i8 %74 to i32
  %76 = and i32 %75, 63
  %77 = shl i32 %76, 12
  %78 = or i32 %71, %77
  %79 = load ptr, ptr %3, align 8
  %80 = getelementptr inbounds i8, ptr %79, i64 2
  %81 = load i8, ptr %80, align 1
  %82 = zext i8 %81 to i32
  %83 = and i32 %82, 63
  %84 = shl i32 %83, 6
  %85 = or i32 %78, %84
  %86 = load ptr, ptr %3, align 8
  %87 = getelementptr inbounds i8, ptr %86, i64 3
  %88 = load i8, ptr %87, align 1
  %89 = zext i8 %88 to i32
  %90 = and i32 %89, 63
  %91 = or i32 %85, %90
  store i32 %91, ptr %2, align 4
  br label %93

92:                                               ; preds = %59
  store i32 -1, ptr %2, align 4
  br label %93

93:                                               ; preds = %92, %65, %39, %20, %9
  %94 = load i32, ptr %2, align 4
  ret i32 %94
}

; Function Attrs: inlinehint nounwind uwtable
define internal ptr @DatumGetPointer(i64 noundef %0) #0 {
  %2 = alloca i64, align 8
  store i64 %0, ptr %2, align 8
  %3 = load i64, ptr %2, align 8
  %4 = inttoptr i64 %3 to ptr
  ret ptr %4
}

; Function Attrs: nounwind uwtable
define dso_local i64 @unicode_assigned(ptr noundef %0) #1 {
  %2 = alloca i64, align 8
  %3 = alloca ptr, align 8
  %4 = alloca ptr, align 8
  %5 = alloca ptr, align 8
  %6 = alloca i32, align 4
  %7 = alloca i32, align 4
  %8 = alloca i32, align 4
  %9 = alloca i32, align 4
  %10 = alloca i32, align 4
  store ptr %0, ptr %3, align 8
  call void @llvm.lifetime.start.p0(i64 8, ptr %4) #13
  %11 = load ptr, ptr %3, align 8
  %12 = getelementptr inbounds nuw %struct.FunctionCallInfoBaseData, ptr %11, i32 0, i32 6
  %13 = getelementptr inbounds [0 x %struct.NullableDatum], ptr %12, i64 0, i64 0
  %14 = getelementptr inbounds nuw %struct.NullableDatum, ptr %13, i32 0, i32 0
  %15 = load i64, ptr %14, align 8
  %16 = call ptr @DatumGetPointer(i64 noundef %15)
  %17 = call ptr @pg_detoast_datum_packed(ptr noundef %16)
  store ptr %17, ptr %4, align 8
  call void @llvm.lifetime.start.p0(i64 8, ptr %5) #13
  call void @llvm.lifetime.start.p0(i64 4, ptr %6) #13
  %18 = call i32 @GetDatabaseEncoding()
  %19 = icmp ne i32 %18, 6
  br i1 %19, label %20, label %31

20:                                               ; preds = %1
  br label %21

21:                                               ; preds = %20
  br i1 true, label %22, label %24

22:                                               ; preds = %21
  %23 = call zeroext i1 @errstart_cold(i32 noundef 21, ptr noundef null) #14
  br i1 %23, label %26, label %28

24:                                               ; preds = %21
  %25 = call zeroext i1 @errstart(i32 noundef 21, ptr noundef null)
  br i1 %25, label %26, label %28

26:                                               ; preds = %24, %22
  %27 = call i32 (ptr, ...) @errmsg(ptr noundef @.str.28)
  call void @errfinish(ptr noundef @.str.2, i32 noundef 6337, ptr noundef @__func__.unicode_assigned)
  br label %28

28:                                               ; preds = %26, %24, %22
  unreachable

29:                                               ; No predecessors!
  br label %30

30:                                               ; preds = %29
  br label %31

31:                                               ; preds = %30, %1
  %32 = load ptr, ptr %4, align 8
  %33 = getelementptr inbounds nuw %struct.varattrib_1b, ptr %32, i32 0, i32 0
  %34 = load i8, ptr %33, align 1
  %35 = zext i8 %34 to i32
  %36 = and i32 %35, 1
  %37 = icmp eq i32 %36, 1
  br i1 %37, label %38, label %42

38:                                               ; preds = %31
  %39 = load ptr, ptr %4, align 8
  %40 = getelementptr inbounds nuw %struct.varattrib_1b, ptr %39, i32 0, i32 1
  %41 = getelementptr inbounds [0 x i8], ptr %40, i64 0, i64 0
  br label %46

42:                                               ; preds = %31
  %43 = load ptr, ptr %4, align 8
  %44 = getelementptr inbounds nuw %struct.anon, ptr %43, i32 0, i32 1
  %45 = getelementptr inbounds [0 x i8], ptr %44, i64 0, i64 0
  br label %46

46:                                               ; preds = %42, %38
  %47 = phi ptr [ %41, %38 ], [ %45, %42 ]
  %48 = load ptr, ptr %4, align 8
  %49 = getelementptr inbounds nuw %struct.varattrib_1b, ptr %48, i32 0, i32 0
  %50 = load i8, ptr %49, align 1
  %51 = zext i8 %50 to i32
  %52 = icmp eq i32 %51, 1
  br i1 %52, label %53, label %81

53:                                               ; preds = %46
  %54 = load ptr, ptr %4, align 8
  %55 = getelementptr inbounds nuw %struct.varattrib_1b_e, ptr %54, i32 0, i32 1
  %56 = load i8, ptr %55, align 1
  %57 = zext i8 %56 to i32
  %58 = icmp eq i32 %57, 1
  br i1 %58, label %59, label %60

59:                                               ; preds = %53
  br label %77

60:                                               ; preds = %53
  %61 = load ptr, ptr %4, align 8
  %62 = getelementptr inbounds nuw %struct.varattrib_1b_e, ptr %61, i32 0, i32 1
  %63 = load i8, ptr %62, align 1
  %64 = zext i8 %63 to i32
  %65 = and i32 %64, -2
  %66 = icmp eq i32 %65, 2
  br i1 %66, label %67, label %68

67:                                               ; preds = %60
  br label %75

68:                                               ; preds = %60
  %69 = load ptr, ptr %4, align 8
  %70 = getelementptr inbounds nuw %struct.varattrib_1b_e, ptr %69, i32 0, i32 1
  %71 = load i8, ptr %70, align 1
  %72 = zext i8 %71 to i32
  %73 = icmp eq i32 %72, 18
  %74 = select i1 %73, i64 16, i64 0
  br label %75

75:                                               ; preds = %68, %67
  %76 = phi i64 [ 8, %67 ], [ %74, %68 ]
  br label %77

77:                                               ; preds = %75, %59
  %78 = phi i64 [ 8, %59 ], [ %76, %75 ]
  %79 = add i64 2, %78
  %80 = sub i64 %79, 2
  br label %107

81:                                               ; preds = %46
  %82 = load ptr, ptr %4, align 8
  %83 = getelementptr inbounds nuw %struct.varattrib_1b, ptr %82, i32 0, i32 0
  %84 = load i8, ptr %83, align 1
  %85 = zext i8 %84 to i32
  %86 = and i32 %85, 1
  %87 = icmp eq i32 %86, 1
  br i1 %87, label %88, label %97

88:                                               ; preds = %81
  %89 = load ptr, ptr %4, align 8
  %90 = getelementptr inbounds nuw %struct.varattrib_1b, ptr %89, i32 0, i32 0
  %91 = load i8, ptr %90, align 1
  %92 = zext i8 %91 to i32
  %93 = ashr i32 %92, 1
  %94 = and i32 %93, 127
  %95 = sext i32 %94 to i64
  %96 = sub i64 %95, 1
  br label %105

97:                                               ; preds = %81
  %98 = load ptr, ptr %4, align 8
  %99 = getelementptr inbounds nuw %struct.anon, ptr %98, i32 0, i32 0
  %100 = load i32, ptr %99, align 4
  %101 = lshr i32 %100, 2
  %102 = and i32 %101, 1073741823
  %103 = sub i32 %102, 4
  %104 = zext i32 %103 to i64
  br label %105

105:                                              ; preds = %97, %88
  %106 = phi i64 [ %96, %88 ], [ %104, %97 ]
  br label %107

107:                                              ; preds = %105, %77
  %108 = phi i64 [ %80, %77 ], [ %106, %105 ]
  %109 = trunc i64 %108 to i32
  %110 = call i32 @pg_mbstrlen_with_len(ptr noundef %47, i32 noundef %109)
  store i32 %110, ptr %6, align 4
  %111 = load ptr, ptr %4, align 8
  %112 = getelementptr inbounds nuw %struct.varattrib_1b, ptr %111, i32 0, i32 0
  %113 = load i8, ptr %112, align 1
  %114 = zext i8 %113 to i32
  %115 = and i32 %114, 1
  %116 = icmp eq i32 %115, 1
  br i1 %116, label %117, label %121

117:                                              ; preds = %107
  %118 = load ptr, ptr %4, align 8
  %119 = getelementptr inbounds nuw %struct.varattrib_1b, ptr %118, i32 0, i32 1
  %120 = getelementptr inbounds [0 x i8], ptr %119, i64 0, i64 0
  br label %125

121:                                              ; preds = %107
  %122 = load ptr, ptr %4, align 8
  %123 = getelementptr inbounds nuw %struct.anon, ptr %122, i32 0, i32 1
  %124 = getelementptr inbounds [0 x i8], ptr %123, i64 0, i64 0
  br label %125

125:                                              ; preds = %121, %117
  %126 = phi ptr [ %120, %117 ], [ %124, %121 ]
  store ptr %126, ptr %5, align 8
  call void @llvm.lifetime.start.p0(i64 4, ptr %7) #13
  store i32 0, ptr %7, align 4
  br label %127

127:                                              ; preds = %150, %125
  %128 = load i32, ptr %7, align 4
  %129 = load i32, ptr %6, align 4
  %130 = icmp slt i32 %128, %129
  br i1 %130, label %132, label %131

131:                                              ; preds = %127
  store i32 4, ptr %8, align 4
  br label %153

132:                                              ; preds = %127
  call void @llvm.lifetime.start.p0(i64 4, ptr %9) #13
  %133 = load ptr, ptr %5, align 8
  %134 = call i32 @utf8_to_unicode(ptr noundef %133)
  store i32 %134, ptr %9, align 4
  call void @llvm.lifetime.start.p0(i64 4, ptr %10) #13
  %135 = load i32, ptr %9, align 4
  %136 = call i32 @unicode_category(i32 noundef %135)
  store i32 %136, ptr %10, align 4
  %137 = load i32, ptr %10, align 4
  %138 = icmp eq i32 %137, 0
  br i1 %138, label %139, label %141

139:                                              ; preds = %132
  %140 = call i64 @BoolGetDatum(i1 noundef zeroext false)
  store i64 %140, ptr %2, align 8
  store i32 1, ptr %8, align 4
  br label %147

141:                                              ; preds = %132
  %142 = load ptr, ptr %5, align 8
  %143 = call i32 @pg_utf_mblen_private(ptr noundef %142)
  %144 = load ptr, ptr %5, align 8
  %145 = sext i32 %143 to i64
  %146 = getelementptr inbounds i8, ptr %144, i64 %145
  store ptr %146, ptr %5, align 8
  store i32 0, ptr %8, align 4
  br label %147

147:                                              ; preds = %141, %139
  call void @llvm.lifetime.end.p0(i64 4, ptr %10) #13
  call void @llvm.lifetime.end.p0(i64 4, ptr %9) #13
  %148 = load i32, ptr %8, align 4
  switch i32 %148, label %153 [
    i32 0, label %149
  ]

149:                                              ; preds = %147
  br label %150

150:                                              ; preds = %149
  %151 = load i32, ptr %7, align 4
  %152 = add i32 %151, 1
  store i32 %152, ptr %7, align 4
  br label %127, !llvm.loop !62

153:                                              ; preds = %147, %131
  call void @llvm.lifetime.end.p0(i64 4, ptr %7) #13
  %154 = load i32, ptr %8, align 4
  switch i32 %154, label %157 [
    i32 4, label %155
  ]

155:                                              ; preds = %153
  %156 = call i64 @BoolGetDatum(i1 noundef zeroext true)
  store i64 %156, ptr %2, align 8
  store i32 1, ptr %8, align 4
  br label %157

157:                                              ; preds = %155, %153
  call void @llvm.lifetime.end.p0(i64 4, ptr %6) #13
  call void @llvm.lifetime.end.p0(i64 8, ptr %5) #13
  call void @llvm.lifetime.end.p0(i64 8, ptr %4) #13
  %158 = load i64, ptr %2, align 8
  ret i64 %158
}