; Function Attrs: nounwind uwtable
define dso_local range(i64 0, 2) i64 @unicode_assigned(ptr noundef readonly captures(none) %0) local_unnamed_addr #0 {
  %2 = getelementptr inbounds nuw i8, ptr %0, i64 32
  %3 = load i64, ptr %2, align 8
  %4 = inttoptr i64 %3 to ptr
  %5 = tail call ptr @pg_detoast_datum_packed(ptr noundef %4) #19
  %6 = tail call i32 @GetDatabaseEncoding() #19
  %.not = icmp eq i32 %6, 6
  br i1 %.not, label %10, label %7

7:                                                ; preds = %1
  %8 = tail call zeroext i1 @errstart_cold(i32 noundef 21, ptr noundef null) #20
  tail call void @llvm.assume(i1 %8)
  %9 = tail call i32 (ptr, ...) @errmsg(ptr noundef nonnull @.str.28) #19
  tail call void @errfinish(ptr noundef nonnull @.str.2, i32 noundef 6337, ptr noundef nonnull @__func__.unicode_assigned) #19
  unreachable

10:                                               ; preds = %1
  %11 = load i8, ptr %5, align 1
  %12 = zext i8 %11 to i32
  %13 = and i32 %12, 1
  %.not32 = icmp eq i32 %13, 0
  %14 = getelementptr inbounds nuw i8, ptr %5, i64 1
  %15 = getelementptr inbounds nuw i8, ptr %5, i64 4
  %16 = select i1 %.not32, ptr %15, ptr %14
  %17 = icmp eq i8 %11, 1
  br i1 %17, label %18, label %26

18:                                               ; preds = %10
  %19 = load i8, ptr %14, align 1
  %20 = icmp eq i8 %19, 1
  %21 = and i8 %19, -2
  %22 = icmp eq i8 %21, 2
  %or.cond = or i1 %20, %22
  %23 = icmp eq i8 %19, 18
  %24 = select i1 %23, i32 16, i32 0
  %25 = select i1 %or.cond, i32 8, i32 %24
  br label %34

26:                                               ; preds = %10
  br i1 %.not32, label %30, label %27

27:                                               ; preds = %26
  %28 = lshr i32 %12, 1
  %29 = add nsw i32 %28, -1
  br label %34

30:                                               ; preds = %26
  %31 = load i32, ptr %5, align 4
  %32 = lshr i32 %31, 2
  %33 = add nsw i32 %32, -4
  br label %34

34:                                               ; preds = %27, %30, %18
  %35 = phi i32 [ %25, %18 ], [ %29, %27 ], [ %33, %30 ]
  %36 = tail call i32 @pg_mbstrlen_with_len(ptr noundef nonnull %16, i32 noundef %35) #19
  %.not3541 = icmp sgt i32 %36, 0
  br i1 %.not3541, label %.lr.ph.preheader, label %.thread39

.lr.ph.preheader:                                 ; preds = %34
  %37 = load i8, ptr %5, align 1
  %38 = and i8 %37, 1
  %.not33 = icmp eq i8 %38, 0
  %39 = select i1 %.not33, ptr %15, ptr %14
  br label %.lr.ph

.lr.ph:                                           ; preds = %.lr.ph.preheader, %85
  %.02543 = phi ptr [ %88, %85 ], [ %39, %.lr.ph.preheader ]
  %.02942 = phi i32 [ %89, %85 ], [ 0, %.lr.ph.preheader ]
  %40 = load i8, ptr %.02543, align 1
  %41 = zext i8 %40 to i32
  %42 = icmp sgt i8 %40, -1
  br i1 %42, label %utf8_to_unicode.exit, label %43

43:                                               ; preds = %.lr.ph
  %44 = and i32 %41, 224
  %45 = icmp eq i32 %44, 192
  br i1 %45, label %46, label %49

46:                                               ; preds = %43
  %47 = shl nuw nsw i32 %41, 6
  %48 = and i32 %47, 1984
  br label %.sink.split.i

49:                                               ; preds = %43
  %50 = and i32 %41, 240
  %51 = icmp eq i32 %50, 224
  br i1 %51, label %52, label %61

52:                                               ; preds = %49
  %53 = shl nuw nsw i32 %41, 12
  %54 = and i32 %53, 61440
  %55 = getelementptr inbounds nuw i8, ptr %.02543, i64 1
  %56 = load i8, ptr %55, align 1
  %57 = and i8 %56, 63
  %58 = zext nneg i8 %57 to i32
  %59 = shl nuw nsw i32 %58, 6
  %60 = or disjoint i32 %59, %54
  br label %.sink.split.i

61:                                               ; preds = %49
  %62 = and i32 %41, 248
  %63 = icmp eq i32 %62, 240
  br i1 %63, label %64, label %utf8_to_unicode.exit

64:                                               ; preds = %61
  %65 = shl nuw nsw i32 %41, 18
  %66 = and i32 %65, 1835008
  %67 = getelementptr inbounds nuw i8, ptr %.02543, i64 1
  %68 = load i8, ptr %67, align 1
  %69 = and i8 %68, 63
  %70 = zext nneg i8 %69 to i32
  %71 = shl nuw nsw i32 %70, 12
  %72 = or disjoint i32 %71, %66
  %73 = getelementptr inbounds nuw i8, ptr %.02543, i64 2
  %74 = load i8, ptr %73, align 1
  %75 = and i8 %74, 63
  %76 = zext nneg i8 %75 to i32
  %77 = shl nuw nsw i32 %76, 6
  %78 = or disjoint i32 %72, %77
  br label %.sink.split.i

.sink.split.i:                                    ; preds = %64, %52, %46
  %.sink18.i = phi i64 [ 3, %64 ], [ 2, %52 ], [ 1, %46 ]
  %.sink.i = phi i32 [ %78, %64 ], [ %60, %52 ], [ %48, %46 ]
  %79 = getelementptr inbounds nuw i8, ptr %.02543, i64 %.sink18.i
  %80 = load i8, ptr %79, align 1
  %81 = and i8 %80, 63
  %82 = zext nneg i8 %81 to i32
  %83 = or disjoint i32 %.sink.i, %82
  br label %utf8_to_unicode.exit

utf8_to_unicode.exit:                             ; preds = %.lr.ph, %61, %.sink.split.i
  %.0.i = phi i32 [ %41, %.lr.ph ], [ -1, %61 ], [ %83, %.sink.split.i ]
  %84 = tail call i32 @unicode_category(i32 noundef %.0.i) #19
  %.not34 = icmp eq i32 %84, 0
  br i1 %.not34, label %.thread39, label %85

85:                                               ; preds = %utf8_to_unicode.exit
  %86 = tail call i32 @pg_utf_mblen_private(ptr noundef nonnull %.02543) #19
  %87 = sext i32 %86 to i64
  %88 = getelementptr inbounds i8, ptr %.02543, i64 %87
  %89 = add nuw nsw i32 %.02942, 1
  %exitcond.not = icmp eq i32 %89, %36
  br i1 %exitcond.not, label %.thread39, label %.lr.ph, !llvm.loop !66

.thread39:                                        ; preds = %85, %utf8_to_unicode.exit, %34
  %.3 = phi i64 [ 1, %34 ], [ 0, %utf8_to_unicode.exit ], [ 1, %85 ]
  ret i64 %.3
}